target datalayout = "e-m:e-p270:32:32-p271:32:32-p272:64:64-i64:64-i128:128-f80:128-n8:16:32:64-S128"
target triple = "x86_64-pc-linux-gnu"

%struct.array_rewriter_params = type { ptr, %class.params_ref }
%class.params_ref = type { ptr }
%class.array_rewriter = type <{ %class.array_util, i8, i8, i8, i8, i8, i8, [2 x i8] }>
%class.array_util = type { %class.array_recognizers, ptr }
%class.array_recognizers = type { i32 }

@.str.2 = private unnamed_addr constant [9 x i8] c"rewriter\00", align 1
@.str.3 = private unnamed_addr constant [11 x i8] c"sort_store\00", align 1
@.str.4 = private unnamed_addr constant [20 x i8] c"expand_select_store\00", align 1
@.str.5 = private unnamed_addr constant [16 x i8] c"expand_store_eq\00", align 1
@.str.6 = private unnamed_addr constant [21 x i8] c"expand_nested_stores\00", align 1
@.str.7 = private unnamed_addr constant [19 x i8] c"blast_select_store\00", align 1
@.str.8 = private unnamed_addr constant [18 x i8] c"expand_select_ite\00", align 1

; Function Attrs: inlinehint mustprogress nounwind uwtable
define linkonce_odr hidden void @_ZN21array_rewriter_paramsD2Ev(ptr noundef nonnull align 8 dereferenceable(16) %0) unnamed_addr #6 comdat align 2 {
  %2 = alloca ptr, align 8
  store ptr %0, ptr %2, align 8, !tbaa !22
  %3 = load ptr, ptr %2, align 8
  %4 = getelementptr inbounds nuw %struct.array_rewriter_params, ptr %3, i32 0, i32 1
  call void @_ZN10params_refD1Ev(ptr noundef nonnull align 8 dereferenceable(8) %4) #3
  ret void
}

; Function Attrs: mustprogress uwtable
define linkonce_odr hidden noundef zeroext i1 @_ZNK21array_rewriter_params17expand_select_iteEv(ptr noundef nonnull align 8 dereferenceable(16) %0) #4 comdat align 2 {
  %2 = alloca ptr, align 8
  store ptr %0, ptr %2, align 8, !tbaa !22
  %3 = load ptr, ptr %2, align 8
  %4 = getelementptr inbounds nuw %struct.array_rewriter_params, ptr %3, i32 0, i32 0
  %5 = load ptr, ptr %4, align 8, !tbaa !24
  %6 = getelementptr inbounds nuw %struct.array_rewriter_params, ptr %3, i32 0, i32 1
  %7 = call noundef zeroext i1 @_ZNK10params_ref8get_boolEPKcRKS_b(ptr noundef nonnull align 8 dereferenceable(8) %5, ptr noundef @.str.8, ptr noundef nonnull align 8 dereferenceable(8) %6, i1 noundef zeroext false)
  ret i1 %7
}

; Function Attrs: mustprogress uwtable
define linkonce_odr hidden noundef zeroext i1 @_ZNK21array_rewriter_params18blast_select_storeEv(ptr noundef nonnull align 8 dereferenceable(16) %0) #4 comdat align 2 {
  %2 = alloca ptr, align 8
  store ptr %0, ptr %2, align 8, !tbaa !22
  %3 = load ptr, ptr %2, align 8
  %4 = getelementptr inbounds nuw %struct.array_rewriter_params, ptr %3, i32 0, i32 0
  %5 = load ptr, ptr %4, align 8, !tbaa !24
  %6 = getelementptr inbounds nuw %struct.array_rewriter_params, ptr %3, i32 0, i32 1
  %7 = call noundef zeroext i1 @_ZNK10params_ref8get_boolEPKcRKS_b(ptr noundef nonnull align 8 dereferenceable(8) %5, ptr noundef @.str.7, ptr noundef nonnull align 8 dereferenceable(8) %6, i1 noundef zeroext false)
  ret i1 %7
}

; Function Attrs: mustprogress uwtable
define linkonce_odr hidden noundef zeroext i1 @_ZNK21array_rewriter_params20expand_nested_storesEv(ptr noundef nonnull align 8 dereferenceable(16) %0) #4 comdat align 2 {
  %2 = alloca ptr, align 8
  store ptr %0, ptr %2, align 8, !tbaa !22
  %3 = load ptr, ptr %2, align 8
  %4 = getelementptr inbounds nuw %struct.array_rewriter_params, ptr %3, i32 0, i32 0
  %5 = load ptr, ptr %4, align 8, !tbaa !24
  %6 = getelementptr inbounds nuw %struct.array_rewriter_params, ptr %3, i32 0, i32 1
  %7 = call noundef zeroext i1 @_ZNK10params_ref8get_boolEPKcRKS_b(ptr noundef nonnull align 8 dereferenceable(8) %5, ptr noundef @.str.6, ptr noundef nonnull align 8 dereferenceable(8) %6, i1 noundef zeroext false)
  ret i1 %7
}

; Function Attrs: mustprogress uwtable
define linkonce_odr hidden noundef zeroext i1 @_ZNK21array_rewriter_params15expand_store_eqEv(ptr noundef nonnull align 8 dereferenceable(16) %0) #4 comdat align 2 {
  %2 = alloca ptr, align 8
  store ptr %0, ptr %2, align 8, !tbaa !22
  %3 = load ptr, ptr %2, align 8
  %4 = getelementptr inbounds nuw %struct.array_rewriter_params, ptr %3, i32 0, i32 0
  %5 = load ptr, ptr %4, align 8, !tbaa !24
  %6 = getelementptr inbounds nuw %struct.array_rewriter_params, ptr %3, i32 0, i32 1
  %7 = call noundef zeroext i1 @_ZNK10params_ref8get_boolEPKcRKS_b(ptr noundef nonnull align 8 dereferenceable(8) %5, ptr noundef @.str.5, ptr noundef nonnull align 8 dereferenceable(8) %6, i1 noundef zeroext false)
  ret i1 %7
}

; Function Attrs: mustprogress uwtable
define linkonce_odr hidden noundef zeroext i1 @_ZNK21array_rewriter_params19expand_select_storeEv(ptr noundef nonnull align 8 dereferenceable(16) %0) #4 comdat align 2 {
  %2 = alloca ptr, align 8
  store ptr %0, ptr %2, align 8, !tbaa !22
  %3 = load ptr, ptr %2, align 8
  %4 = getelementptr inbounds nuw %struct.array_rewriter_params, ptr %3, i32 0, i32 0
  %5 = load ptr, ptr %4, align 8, !tbaa !24
  %6 = getelementptr inbounds nuw %struct.array_rewriter_params, ptr %3, i32 0, i32 1
  %7 = call noundef zeroext i1 @_ZNK10params_ref8get_boolEPKcRKS_b(ptr noundef nonnull align 8 dereferenceable(8) %5, ptr noundef @.str.4, ptr noundef nonnull align 8 dereferenceable(8) %6, i1 noundef zeroext false)
  ret i1 %7
}

; Function Attrs: mustprogress uwtable
define linkonce_odr hidden noundef zeroext i1 @_ZNK21array_rewriter_params10sort_storeEv(ptr noundef nonnull align 8 dereferenceable(16) %0) #4 comdat align 2 {
  %2 = alloca ptr, align 8
  store ptr %0, ptr %2, align 8, !tbaa !22
  %3 = load ptr, ptr %2, align 8
  %4 = getelementptr inbounds nuw %struct.array_rewriter_params, ptr %3, i32 0, i32 0
  %5 = load ptr, ptr %4, align 8, !tbaa !24
  %6 = getelementptr inbounds nuw %struct.array_rewriter_params, ptr %3, i32 0, i32 1
  %7 = call noundef zeroext i1 @_ZNK10params_ref8get_boolEPKcRKS_b(ptr noundef nonnull align 8 dereferenceable(8) %5, ptr noundef @.str.3, ptr noundef nonnull align 8 dereferenceable(8) %6, i1 noundef zeroext false)
  ret i1 %7
}

; Function Attrs: mustprogress uwtable
define linkonce_odr hidden void @_ZN21array_rewriter_paramsC2ERK10params_ref(ptr noundef nonnull align 8 dereferenceable(16) %0, ptr noundef nonnull align 8 dereferenceable(8) %1) unnamed_addr #4 comdat align 2 {
  %3 = alloca ptr, align 8
  %4 = alloca ptr, align 8
  store ptr %0, ptr %3, align 8, !tbaa !22
  store ptr %1, ptr %4, align 8, !tbaa !8
  %5 = load ptr, ptr %3, align 8
  %6 = getelementptr inbounds nuw %struct.array_rewriter_params, ptr %5, i32 0, i32 0
  %7 = load ptr, ptr %4, align 8, !tbaa !8
  store ptr %7, ptr %6, align 8, !tbaa !8
  %8 = getelementptr inbounds nuw %struct.array_rewriter_params, ptr %5, i32 0, i32 1
  call void @_ZN7gparams10get_moduleEPKc(ptr dead_on_unwind writable sret(%class.params_ref) align 8 %8, ptr noundef @.str.2)
  ret void
}

; Function Attrs: mustprogress uwtable
define hidden void @_ZN14array_rewriter11updt_paramsERK10params_ref(ptr noundef nonnull align 8 dereferenceable(22) %0, ptr noundef nonnull align 8 dereferenceable(8) %1) #4 align 2 personality ptr @__gxx_personality_v0 {
  %3 = alloca ptr, align 8
  %4 = alloca ptr, align 8
  %5 = alloca %struct.array_rewriter_params, align 8
  %6 = alloca ptr, align 8
  %7 = alloca i32, align 4
  store ptr %0, ptr %3, align 8, !tbaa !3
  store ptr %1, ptr %4, align 8, !tbaa !8
  %8 = load ptr, ptr %3, align 8
  call void @llvm.lifetime.start.p0(i64 16, ptr %5) #3
  %9 = load ptr, ptr %4, align 8, !tbaa !8
  call void @_ZN21array_rewriter_paramsC2ERK10params_ref(ptr noundef nonnull align 8 dereferenceable(16) %5, ptr noundef nonnull align 8 dereferenceable(8) %9)
  %10 = invoke noundef zeroext i1 @_ZNK21array_rewriter_params10sort_storeEv(ptr noundef nonnull align 8 dereferenceable(16) %5)
          to label %11 unwind label %34

11:                                               ; preds = %2
  %12 = getelementptr inbounds nuw %class.array_rewriter, ptr %8, i32 0, i32 1
  %13 = zext i1 %10 to i8
  store i8 %13, ptr %12, align 8, !tbaa !10
  %14 = invoke noundef zeroext i1 @_ZNK21array_rewriter_params19expand_select_storeEv(ptr noundef nonnull align 8 dereferenceable(16) %5)
          to label %15 unwind label %34

15:                                               ; preds = %11
  %16 = getelementptr inbounds nuw %class.array_rewriter, ptr %8, i32 0, i32 3
  %17 = zext i1 %14 to i8
  store i8 %17, ptr %16, align 2, !tbaa !17
  %18 = invoke noundef zeroext i1 @_ZNK21array_rewriter_params15expand_store_eqEv(ptr noundef nonnull align 8 dereferenceable(16) %5)
          to label %19 unwind label %34

19:                                               ; preds = %15
  %20 = getelementptr inbounds nuw %class.array_rewriter, ptr %8, i32 0, i32 4
  %21 = zext i1 %18 to i8
  store i8 %21, ptr %20, align 1, !tbaa !18
  %22 = invoke noundef zeroext i1 @_ZNK21array_rewriter_params20expand_nested_storesEv(ptr noundef nonnull align 8 dereferenceable(16) %5)
          to label %23 unwind label %34

23:                                               ; preds = %19
  %24 = getelementptr inbounds nuw %class.array_rewriter, ptr %8, i32 0, i32 6
  %25 = zext i1 %22 to i8
  store i8 %25, ptr %24, align 1, !tbaa !19
  %26 = invoke noundef zeroext i1 @_ZNK21array_rewriter_params18blast_select_storeEv(ptr noundef nonnull align 8 dereferenceable(16) %5)
          to label %27 unwind label %34

27:                                               ; preds = %23
  %28 = getelementptr inbounds nuw %class.array_rewriter, ptr %8, i32 0, i32 2
  %29 = zext i1 %26 to i8
  store i8 %29, ptr %28, align 1, !tbaa !20
  %30 = invoke noundef zeroext i1 @_ZNK21array_rewriter_params17expand_select_iteEv(ptr noundef nonnull align 8 dereferenceable(16) %5)
          to label %31 unwind label %34

31:                                               ; preds = %27
  %32 = getelementptr inbounds nuw %class.array_rewriter, ptr %8, i32 0, i32 5
  %33 = zext i1 %30 to i8
  store i8 %33, ptr %32, align 4, !tbaa !21
  call void @_ZN21array_rewriter_paramsD2Ev(ptr noundef nonnull align 8 dereferenceable(16) %5) #3
  call void @llvm.lifetime.end.p0(i64 16, ptr %5) #3
  ret void

34:                                               ; preds = %27, %23, %19, %15, %11, %2
  %35 = landingpad { ptr, i32 }
          cleanup
  %36 = extractvalue { ptr, i32 } %35, 0
  store ptr %36, ptr %6, align 8
  %37 = extractvalue { ptr, i32 } %35, 1
  store i32 %37, ptr %7, align 4
  call void @_ZN21array_rewriter_paramsD2Ev(ptr noundef nonnull align 8 dereferenceable(16) %5) #3
  call void @llvm.lifetime.end.p0(i64 16, ptr %5) #3
  br label %38

38:                                               ; preds = %34
  %39 = load ptr, ptr %6, align 8
  %40 = load i32, ptr %7, align 4
  %41 = insertvalue { ptr, i32 } poison, ptr %39, 0
  %42 = insertvalue { ptr, i32 } %41, i32 %40, 1
  resume { ptr, i32 } %42
}