; Function Attrs: mustprogress uwtable
define hidden void @_ZN14array_rewriter11updt_paramsERK10params_ref(ptr noundef nonnull writeonly align 8 captures(none) dereferenceable(22) %0, ptr noundef nonnull align 8 dereferenceable(8) %1) local_unnamed_addr #3 align 2 personality ptr @__gxx_personality_v0 {
  %3 = alloca %struct.array_rewriter_params, align 8
  call void @llvm.lifetime.start.p0(i64 16, ptr nonnull %3) #24
  store ptr %1, ptr %3, align 8, !tbaa !3
  %4 = getelementptr inbounds nuw i8, ptr %3, i64 8
  call void @_ZN7gparams10get_moduleEPKc(ptr dead_on_unwind nonnull writable sret(%class.params_ref) align 8 %4, ptr noundef nonnull @.str.2)
  %5 = load ptr, ptr %3, align 8, !tbaa !8
  %6 = invoke noundef zeroext i1 @_ZNK10params_ref8get_boolEPKcRKS_b(ptr noundef nonnull align 8 dereferenceable(8) %5, ptr noundef nonnull @.str.3, ptr noundef nonnull align 8 dereferenceable(8) %4, i1 noundef zeroext false)
          to label %_ZNK21array_rewriter_params10sort_storeEv.exit unwind label %29

_ZNK21array_rewriter_params10sort_storeEv.exit:   ; preds = %2
  %7 = getelementptr inbounds nuw i8, ptr %0, i64 16
  %8 = zext i1 %6 to i8
  store i8 %8, ptr %7, align 8, !tbaa !12
  %9 = load ptr, ptr %3, align 8, !tbaa !8
  %10 = invoke noundef zeroext i1 @_ZNK10params_ref8get_boolEPKcRKS_b(ptr noundef nonnull align 8 dereferenceable(8) %9, ptr noundef nonnull @.str.4, ptr noundef nonnull align 8 dereferenceable(8) %4, i1 noundef zeroext false)
          to label %_ZNK21array_rewriter_params19expand_select_storeEv.exit unwind label %29

_ZNK21array_rewriter_params19expand_select_storeEv.exit: ; preds = %_ZNK21array_rewriter_params10sort_storeEv.exit
  %11 = getelementptr inbounds nuw i8, ptr %0, i64 18
  %12 = zext i1 %10 to i8
  store i8 %12, ptr %11, align 2, !tbaa !19
  %13 = load ptr, ptr %3, align 8, !tbaa !8
  %14 = invoke noundef zeroext i1 @_ZNK10params_ref8get_boolEPKcRKS_b(ptr noundef nonnull align 8 dereferenceable(8) %13, ptr noundef nonnull @.str.5, ptr noundef nonnull align 8 dereferenceable(8) %4, i1 noundef zeroext false)
          to label %_ZNK21array_rewriter_params15expand_store_eqEv.exit unwind label %29

_ZNK21array_rewriter_params15expand_store_eqEv.exit: ; preds = %_ZNK21array_rewriter_params19expand_select_storeEv.exit
  %15 = getelementptr inbounds nuw i8, ptr %0, i64 19
  %16 = zext i1 %14 to i8
  store i8 %16, ptr %15, align 1, !tbaa !20
  %17 = load ptr, ptr %3, align 8, !tbaa !8
  %18 = invoke noundef zeroext i1 @_ZNK10params_ref8get_boolEPKcRKS_b(ptr noundef nonnull align 8 dereferenceable(8) %17, ptr noundef nonnull @.str.6, ptr noundef nonnull align 8 dereferenceable(8) %4, i1 noundef zeroext false)
          to label %_ZNK21array_rewriter_params20expand_nested_storesEv.exit unwind label %29

_ZNK21array_rewriter_params20expand_nested_storesEv.exit: ; preds = %_ZNK21array_rewriter_params15expand_store_eqEv.exit
  %19 = getelementptr inbounds nuw i8, ptr %0, i64 21
  %20 = zext i1 %18 to i8
  store i8 %20, ptr %19, align 1, !tbaa !21
  %21 = load ptr, ptr %3, align 8, !tbaa !8
  %22 = invoke noundef zeroext i1 @_ZNK10params_ref8get_boolEPKcRKS_b(ptr noundef nonnull align 8 dereferenceable(8) %21, ptr noundef nonnull @.str.7, ptr noundef nonnull align 8 dereferenceable(8) %4, i1 noundef zeroext false)
          to label %_ZNK21array_rewriter_params18blast_select_storeEv.exit unwind label %29

_ZNK21array_rewriter_params18blast_select_storeEv.exit: ; preds = %_ZNK21array_rewriter_params20expand_nested_storesEv.exit
  %23 = getelementptr inbounds nuw i8, ptr %0, i64 17
  %24 = zext i1 %22 to i8
  store i8 %24, ptr %23, align 1, !tbaa !22
  %25 = load ptr, ptr %3, align 8, !tbaa !8
  %26 = invoke noundef zeroext i1 @_ZNK10params_ref8get_boolEPKcRKS_b(ptr noundef nonnull align 8 dereferenceable(8) %25, ptr noundef nonnull @.str.8, ptr noundef nonnull align 8 dereferenceable(8) %4, i1 noundef zeroext false)
          to label %_ZNK21array_rewriter_params17expand_select_iteEv.exit unwind label %29

_ZNK21array_rewriter_params17expand_select_iteEv.exit: ; preds = %_ZNK21array_rewriter_params18blast_select_storeEv.exit
  %27 = getelementptr inbounds nuw i8, ptr %0, i64 20
  %28 = zext i1 %26 to i8
  store i8 %28, ptr %27, align 4, !tbaa !23
  call void @_ZN10params_refD1Ev(ptr noundef nonnull align 8 dereferenceable(8) %4) #24
  call void @llvm.lifetime.end.p0(i64 16, ptr nonnull %3) #24
  ret void

29:                                               ; preds = %_ZNK21array_rewriter_params18blast_select_storeEv.exit, %_ZNK21array_rewriter_params20expand_nested_storesEv.exit, %_ZNK21array_rewriter_params15expand_store_eqEv.exit, %_ZNK21array_rewriter_params19expand_select_storeEv.exit, %_ZNK21array_rewriter_params10sort_storeEv.exit, %2
  %30 = landingpad { ptr, i32 }
          cleanup
  call void @_ZN10params_refD1Ev(ptr noundef nonnull align 8 dereferenceable(8) %4) #24
  call void @llvm.lifetime.end.p0(i64 16, ptr nonnull %3) #24
  resume { ptr, i32 } %30
}